
PWC.elf: formato do arquivo elf32-avr

Seções:
Idx Name          Size      VMA       LMA       File off  Algn
  0 .text         00000104  00000000  00000000  00000074  2**1
                  CONTENTS, ALLOC, LOAD, READONLY, CODE
  1 .data         00000000  00800060  00000104  00000178  2**0
                  CONTENTS, ALLOC, LOAD, DATA
  2 .comment      00000011  00000000  00000000  00000178  2**0
                  CONTENTS, READONLY
  3 .note.gnu.avr.deviceinfo 0000003c  00000000  00000000  0000018c  2**2
                  CONTENTS, READONLY
  4 .debug_info   0000048c  00000000  00000000  000001c8  2**0
                  CONTENTS, READONLY, DEBUGGING
  5 .debug_abbrev 0000044e  00000000  00000000  00000654  2**0
                  CONTENTS, READONLY, DEBUGGING
  6 .debug_line   0000001a  00000000  00000000  00000aa2  2**0
                  CONTENTS, READONLY, DEBUGGING
  7 .debug_str    0000017a  00000000  00000000  00000abc  2**0
                  CONTENTS, READONLY, DEBUGGING

Desmontagem da seção .text:

00000000 <__vectors>:
   0:	12 c0       	rjmp	.+36     	; 0x26 <__ctors_end>
   2:	19 c0       	rjmp	.+50     	; 0x36 <__bad_interrupt>
   4:	18 c0       	rjmp	.+48     	; 0x36 <__bad_interrupt>
   6:	17 c0       	rjmp	.+46     	; 0x36 <__bad_interrupt>
   8:	32 c0       	rjmp	.+100    	; 0x6e <__vector_4>
   a:	15 c0       	rjmp	.+42     	; 0x36 <__bad_interrupt>
   c:	14 c0       	rjmp	.+40     	; 0x36 <__bad_interrupt>
   e:	13 c0       	rjmp	.+38     	; 0x36 <__bad_interrupt>
  10:	12 c0       	rjmp	.+36     	; 0x36 <__bad_interrupt>
  12:	11 c0       	rjmp	.+34     	; 0x36 <__bad_interrupt>
  14:	10 c0       	rjmp	.+32     	; 0x36 <__bad_interrupt>
  16:	0f c0       	rjmp	.+30     	; 0x36 <__bad_interrupt>
  18:	0e c0       	rjmp	.+28     	; 0x36 <__bad_interrupt>
  1a:	0d c0       	rjmp	.+26     	; 0x36 <__bad_interrupt>
  1c:	0c c0       	rjmp	.+24     	; 0x36 <__bad_interrupt>
  1e:	0b c0       	rjmp	.+22     	; 0x36 <__bad_interrupt>
  20:	0a c0       	rjmp	.+20     	; 0x36 <__bad_interrupt>
  22:	09 c0       	rjmp	.+18     	; 0x36 <__bad_interrupt>
  24:	08 c0       	rjmp	.+16     	; 0x36 <__bad_interrupt>

00000026 <__ctors_end>:
  26:	11 24       	eor	r1, r1
  28:	1f be       	out	0x3f, r1	; 63
  2a:	cf e5       	ldi	r28, 0x5F	; 95
  2c:	d4 e0       	ldi	r29, 0x04	; 4
  2e:	de bf       	out	0x3e, r29	; 62
  30:	cd bf       	out	0x3d, r28	; 61
  32:	45 d0       	rcall	.+138    	; 0xbe <main>
  34:	65 c0       	rjmp	.+202    	; 0x100 <_exit>

00000036 <__bad_interrupt>:
  36:	e4 cf       	rjmp	.-56     	; 0x0 <__vectors>

00000038 <disable_all_interrupts>:
  38:	08 95       	ret

0000003a <enable_all_interrupts>:
  3a:	08 95       	ret

0000003c <config_power_saving>:
  3c:	85 b7       	in	r24, 0x35	; 53
  3e:	8f 78       	andi	r24, 0x8F	; 143
  40:	80 63       	ori	r24, 0x30	; 48
  42:	85 bf       	out	0x35, r24	; 53
  44:	08 95       	ret

00000046 <config_idle>:
  46:	85 b7       	in	r24, 0x35	; 53
  48:	8f 78       	andi	r24, 0x8F	; 143
  4a:	85 bf       	out	0x35, r24	; 53
  4c:	08 95       	ret

0000004e <config_standby>:
  4e:	85 b7       	in	r24, 0x35	; 53
  50:	8f 78       	andi	r24, 0x8F	; 143
  52:	80 66       	ori	r24, 0x60	; 96
  54:	85 bf       	out	0x35, r24	; 53
  56:	08 95       	ret

00000058 <put_to_sleep>:
  58:	ef df       	rcall	.-34     	; 0x38 <disable_all_interrupts>
  5a:	85 b7       	in	r24, 0x35	; 53
  5c:	80 68       	ori	r24, 0x80	; 128
  5e:	85 bf       	out	0x35, r24	; 53
  60:	ec df       	rcall	.-40     	; 0x3a <enable_all_interrupts>
  62:	88 95       	sleep
  64:	08 95       	ret

00000066 <wake_up>:
  66:	85 b7       	in	r24, 0x35	; 53
  68:	8f 77       	andi	r24, 0x7F	; 127
  6a:	85 bf       	out	0x35, r24	; 53
  6c:	08 95       	ret

0000006e <__vector_4>:
  6e:	1f 92       	push	r1
  70:	0f 92       	push	r0
  72:	0f b6       	in	r0, 0x3f	; 63
  74:	0f 92       	push	r0
  76:	11 24       	eor	r1, r1
  78:	2f 93       	push	r18
  7a:	3f 93       	push	r19
  7c:	4f 93       	push	r20
  7e:	5f 93       	push	r21
  80:	6f 93       	push	r22
  82:	7f 93       	push	r23
  84:	8f 93       	push	r24
  86:	9f 93       	push	r25
  88:	af 93       	push	r26
  8a:	bf 93       	push	r27
  8c:	ef 93       	push	r30
  8e:	ff 93       	push	r31
  90:	85 b7       	in	r24, 0x35	; 53
  92:	8f 77       	andi	r24, 0x7F	; 127
  94:	85 bf       	out	0x35, r24	; 53
  96:	ad 9a       	sbi	0x15, 5	; 21
  98:	14 bc       	out	0x24, r1	; 36
  9a:	de df       	rcall	.-68     	; 0x58 <put_to_sleep>
  9c:	ff 91       	pop	r31
  9e:	ef 91       	pop	r30
  a0:	bf 91       	pop	r27
  a2:	af 91       	pop	r26
  a4:	9f 91       	pop	r25
  a6:	8f 91       	pop	r24
  a8:	7f 91       	pop	r23
  aa:	6f 91       	pop	r22
  ac:	5f 91       	pop	r21
  ae:	4f 91       	pop	r20
  b0:	3f 91       	pop	r19
  b2:	2f 91       	pop	r18
  b4:	0f 90       	pop	r0
  b6:	0f be       	out	0x3f, r0	; 63
  b8:	0f 90       	pop	r0
  ba:	1f 90       	pop	r1
  bc:	18 95       	reti

000000be <main>:
  be:	a5 9a       	sbi	0x14, 5	; 20
  c0:	ad 98       	cbi	0x15, 5	; 21
  c2:	8f e4       	ldi	r24, 0x4F	; 79
  c4:	93 ec       	ldi	r25, 0xC3	; 195
  c6:	01 97       	sbiw	r24, 0x01	; 1
  c8:	f1 f7       	brne	.-4      	; 0xc6 <main+0x8>
  ca:	00 c0       	rjmp	.+0      	; 0xcc <main+0xe>
  cc:	00 00       	nop
  ce:	82 b5       	in	r24, 0x22	; 34
  d0:	88 60       	ori	r24, 0x08	; 8
  d2:	82 bd       	out	0x22, r24	; 34
  d4:	89 b7       	in	r24, 0x39	; 57
  d6:	8f 77       	andi	r24, 0x7F	; 127
  d8:	89 bf       	out	0x39, r24	; 57
  da:	89 b7       	in	r24, 0x39	; 57
  dc:	80 64       	ori	r24, 0x40	; 64
  de:	89 bf       	out	0x39, r24	; 57
  e0:	88 b7       	in	r24, 0x38	; 56
  e2:	80 64       	ori	r24, 0x40	; 64
  e4:	88 bf       	out	0x38, r24	; 56
  e6:	14 bc       	out	0x24, r1	; 36
  e8:	85 b5       	in	r24, 0x25	; 37
  ea:	8b 7f       	andi	r24, 0xFB	; 251
  ec:	85 bd       	out	0x25, r24	; 37
  ee:	85 b5       	in	r24, 0x25	; 37
  f0:	8d 7f       	andi	r24, 0xFD	; 253
  f2:	85 bd       	out	0x25, r24	; 37
  f4:	85 b5       	in	r24, 0x25	; 37
  f6:	81 60       	ori	r24, 0x01	; 1
  f8:	85 bd       	out	0x25, r24	; 37
  fa:	78 94       	sei
  fc:	9f df       	rcall	.-194    	; 0x3c <config_power_saving>
  fe:	ff cf       	rjmp	.-2      	; 0xfe <main+0x40>

00000100 <_exit>:
 100:	f8 94       	cli

00000102 <__stop_program>:
 102:	ff cf       	rjmp	.-2      	; 0x102 <__stop_program>
