
PWC.elf: formato do arquivo elf32-avr

Seções:
Idx Name          Size      VMA       LMA       File off  Algn
  0 .text         0000014a  00000000  00000000  00000094  2**1
                  CONTENTS, ALLOC, LOAD, READONLY, CODE
  1 .data         00000000  00800060  0000014a  000001de  2**0
                  CONTENTS, ALLOC, LOAD, DATA
  2 .bss          00000002  00800060  00800060  000001de  2**0
                  ALLOC
  3 .comment      00000011  00000000  00000000  000001de  2**0
                  CONTENTS, READONLY
  4 .note.gnu.avr.deviceinfo 0000003c  00000000  00000000  000001f0  2**2
                  CONTENTS, READONLY
  5 .debug_info   0000048c  00000000  00000000  0000022c  2**0
                  CONTENTS, READONLY, DEBUGGING
  6 .debug_abbrev 0000044e  00000000  00000000  000006b8  2**0
                  CONTENTS, READONLY, DEBUGGING
  7 .debug_line   0000001a  00000000  00000000  00000b06  2**0
                  CONTENTS, READONLY, DEBUGGING
  8 .debug_str    0000017a  00000000  00000000  00000b20  2**0
                  CONTENTS, READONLY, DEBUGGING

Desmontagem da seção .text:

00000000 <__vectors>:
   0:	12 c0       	rjmp	.+36     	; 0x26 <__ctors_end>
   2:	21 c0       	rjmp	.+66     	; 0x46 <__bad_interrupt>
   4:	20 c0       	rjmp	.+64     	; 0x46 <__bad_interrupt>
   6:	1f c0       	rjmp	.+62     	; 0x46 <__bad_interrupt>
   8:	3a c0       	rjmp	.+116    	; 0x7e <__vector_4>
   a:	1d c0       	rjmp	.+58     	; 0x46 <__bad_interrupt>
   c:	1c c0       	rjmp	.+56     	; 0x46 <__bad_interrupt>
   e:	1b c0       	rjmp	.+54     	; 0x46 <__bad_interrupt>
  10:	1a c0       	rjmp	.+52     	; 0x46 <__bad_interrupt>
  12:	19 c0       	rjmp	.+50     	; 0x46 <__bad_interrupt>
  14:	18 c0       	rjmp	.+48     	; 0x46 <__bad_interrupt>
  16:	17 c0       	rjmp	.+46     	; 0x46 <__bad_interrupt>
  18:	16 c0       	rjmp	.+44     	; 0x46 <__bad_interrupt>
  1a:	15 c0       	rjmp	.+42     	; 0x46 <__bad_interrupt>
  1c:	14 c0       	rjmp	.+40     	; 0x46 <__bad_interrupt>
  1e:	13 c0       	rjmp	.+38     	; 0x46 <__bad_interrupt>
  20:	12 c0       	rjmp	.+36     	; 0x46 <__bad_interrupt>
  22:	11 c0       	rjmp	.+34     	; 0x46 <__bad_interrupt>
  24:	10 c0       	rjmp	.+32     	; 0x46 <__bad_interrupt>

00000026 <__ctors_end>:
  26:	11 24       	eor	r1, r1
  28:	1f be       	out	0x3f, r1	; 63
  2a:	cf e5       	ldi	r28, 0x5F	; 95
  2c:	d4 e0       	ldi	r29, 0x04	; 4
  2e:	de bf       	out	0x3e, r29	; 62
  30:	cd bf       	out	0x3d, r28	; 61

00000032 <__do_clear_bss>:
  32:	20 e0       	ldi	r18, 0x00	; 0
  34:	a0 e6       	ldi	r26, 0x60	; 96
  36:	b0 e0       	ldi	r27, 0x00	; 0
  38:	01 c0       	rjmp	.+2      	; 0x3c <.do_clear_bss_start>

0000003a <.do_clear_bss_loop>:
  3a:	1d 92       	st	X+, r1

0000003c <.do_clear_bss_start>:
  3c:	a2 36       	cpi	r26, 0x62	; 98
  3e:	b2 07       	cpc	r27, r18
  40:	e1 f7       	brne	.-8      	; 0x3a <.do_clear_bss_loop>
  42:	36 d0       	rcall	.+108    	; 0xb0 <main>
  44:	80 c0       	rjmp	.+256    	; 0x146 <_exit>

00000046 <__bad_interrupt>:
  46:	dc cf       	rjmp	.-72     	; 0x0 <__vectors>

00000048 <disable_all_interrupts>:
  48:	08 95       	ret

0000004a <enable_all_interrupts>:
  4a:	08 95       	ret

0000004c <config_power_saving>:
  4c:	85 b7       	in	r24, 0x35	; 53
  4e:	8f 78       	andi	r24, 0x8F	; 143
  50:	80 63       	ori	r24, 0x30	; 48
  52:	85 bf       	out	0x35, r24	; 53
  54:	08 95       	ret

00000056 <config_idle>:
  56:	85 b7       	in	r24, 0x35	; 53
  58:	8f 78       	andi	r24, 0x8F	; 143
  5a:	85 bf       	out	0x35, r24	; 53
  5c:	08 95       	ret

0000005e <config_standby>:
  5e:	85 b7       	in	r24, 0x35	; 53
  60:	8f 78       	andi	r24, 0x8F	; 143
  62:	80 66       	ori	r24, 0x60	; 96
  64:	85 bf       	out	0x35, r24	; 53
  66:	08 95       	ret

00000068 <put_to_sleep>:
  68:	ef df       	rcall	.-34     	; 0x48 <disable_all_interrupts>
  6a:	85 b7       	in	r24, 0x35	; 53
  6c:	80 68       	ori	r24, 0x80	; 128
  6e:	85 bf       	out	0x35, r24	; 53
  70:	ec df       	rcall	.-40     	; 0x4a <enable_all_interrupts>
  72:	88 95       	sleep
  74:	08 95       	ret

00000076 <wake_up>:
  76:	85 b7       	in	r24, 0x35	; 53
  78:	8f 77       	andi	r24, 0x7F	; 127
  7a:	85 bf       	out	0x35, r24	; 53
  7c:	08 95       	ret

0000007e <__vector_4>:
  7e:	1f 92       	push	r1
  80:	0f 92       	push	r0
  82:	0f b6       	in	r0, 0x3f	; 63
  84:	0f 92       	push	r0
  86:	11 24       	eor	r1, r1
  88:	8f 93       	push	r24
  8a:	9f 93       	push	r25
  8c:	f8 94       	cli
  8e:	95 b3       	in	r25, 0x15	; 21
  90:	80 e2       	ldi	r24, 0x20	; 32
  92:	89 27       	eor	r24, r25
  94:	85 bb       	out	0x15, r24	; 21
  96:	81 e0       	ldi	r24, 0x01	; 1
  98:	80 93 60 00 	sts	0x0060, r24	; 0x800060 <_edata>
  9c:	80 93 61 00 	sts	0x0061, r24	; 0x800061 <go_sleep>
  a0:	78 94       	sei
  a2:	9f 91       	pop	r25
  a4:	8f 91       	pop	r24
  a6:	0f 90       	pop	r0
  a8:	0f be       	out	0x3f, r0	; 63
  aa:	0f 90       	pop	r0
  ac:	1f 90       	pop	r1
  ae:	18 95       	reti

000000b0 <main>:
  b0:	f8 94       	cli
  b2:	82 b5       	in	r24, 0x22	; 34
  b4:	88 60       	ori	r24, 0x08	; 8
  b6:	82 bd       	out	0x22, r24	; 34
  b8:	10 92 60 00 	sts	0x0060, r1	; 0x800060 <_edata>
  bc:	10 92 61 00 	sts	0x0061, r1	; 0x800061 <go_sleep>
  c0:	a5 9a       	sbi	0x14, 5	; 20
  c2:	ad 98       	cbi	0x15, 5	; 21
  c4:	83 ed       	ldi	r24, 0xD3	; 211
  c6:	90 e3       	ldi	r25, 0x30	; 48
  c8:	01 97       	sbiw	r24, 0x01	; 1
  ca:	f1 f7       	brne	.-4      	; 0xc8 <main+0x18>
  cc:	00 c0       	rjmp	.+0      	; 0xce <main+0x1e>
  ce:	00 00       	nop
  d0:	ad 9a       	sbi	0x15, 5	; 21
  d2:	83 ed       	ldi	r24, 0xD3	; 211
  d4:	90 e3       	ldi	r25, 0x30	; 48
  d6:	01 97       	sbiw	r24, 0x01	; 1
  d8:	f1 f7       	brne	.-4      	; 0xd6 <main+0x26>
  da:	00 c0       	rjmp	.+0      	; 0xdc <main+0x2c>
  dc:	00 00       	nop
  de:	ad 98       	cbi	0x15, 5	; 21
  e0:	89 b7       	in	r24, 0x39	; 57
  e2:	8f 77       	andi	r24, 0x7F	; 127
  e4:	89 bf       	out	0x39, r24	; 57
  e6:	09 b6       	in	r0, 0x39	; 57
  e8:	07 fc       	sbrc	r0, 7
  ea:	fd cf       	rjmp	.-6      	; 0xe6 <main+0x36>
  ec:	89 b7       	in	r24, 0x39	; 57
  ee:	80 64       	ori	r24, 0x40	; 64
  f0:	89 bf       	out	0x39, r24	; 57
  f2:	09 b6       	in	r0, 0x39	; 57
  f4:	07 fe       	sbrs	r0, 7
  f6:	fd cf       	rjmp	.-6      	; 0xf2 <main+0x42>
  f8:	88 b7       	in	r24, 0x38	; 56
  fa:	80 64       	ori	r24, 0x40	; 64
  fc:	88 bf       	out	0x38, r24	; 56
  fe:	08 b6       	in	r0, 0x38	; 56
 100:	06 fe       	sbrs	r0, 6
 102:	fd cf       	rjmp	.-6      	; 0xfe <main+0x4e>
 104:	14 bc       	out	0x24, r1	; 36
 106:	82 b5       	in	r24, 0x22	; 34
 108:	87 70       	andi	r24, 0x07	; 7
 10a:	e9 f7       	brne	.-6      	; 0x106 <main+0x56>
 10c:	81 e0       	ldi	r24, 0x01	; 1
 10e:	85 bd       	out	0x25, r24	; 37
 110:	14 bc       	out	0x24, r1	; 36
 112:	78 94       	sei
 114:	9b df       	rcall	.-202    	; 0x4c <config_power_saving>
 116:	85 b7       	in	r24, 0x35	; 53
 118:	8f 77       	andi	r24, 0x7F	; 127
 11a:	85 bf       	out	0x35, r24	; 53
 11c:	80 91 60 00 	lds	r24, 0x0060	; 0x800060 <_edata>
 120:	88 23       	and	r24, r24
 122:	e1 f3       	breq	.-8      	; 0x11c <main+0x6c>
 124:	f8 94       	cli
 126:	80 91 61 00 	lds	r24, 0x0061	; 0x800061 <go_sleep>
 12a:	88 23       	and	r24, r24
 12c:	51 f0       	breq	.+20     	; 0x142 <main+0x92>
 12e:	10 92 61 00 	sts	0x0061, r1	; 0x800061 <go_sleep>
 132:	85 b7       	in	r24, 0x35	; 53
 134:	80 68       	ori	r24, 0x80	; 128
 136:	85 bf       	out	0x35, r24	; 53
 138:	78 94       	sei
 13a:	88 95       	sleep
 13c:	85 b7       	in	r24, 0x35	; 53
 13e:	8f 77       	andi	r24, 0x7F	; 127
 140:	85 bf       	out	0x35, r24	; 53
 142:	78 94       	sei
 144:	ef cf       	rjmp	.-34     	; 0x124 <main+0x74>

00000146 <_exit>:
 146:	f8 94       	cli

00000148 <__stop_program>:
 148:	ff cf       	rjmp	.-2      	; 0x148 <__stop_program>
